; Function Attrs: nounwind uwtable
define void @Wlc_IntSortCostReverse(ptr noundef readonly captures(none) %0, ptr noundef captures(none) %1, i32 noundef %2) local_unnamed_addr #2 {
  %4 = icmp sgt i32 %2, 1
  br i1 %4, label %.lr.ph46, label %._crit_edge47

.lr.ph46:                                         ; preds = %3
  %5 = add nsw i32 %2, -1
  %6 = getelementptr i8, ptr %0, i64 160
  %wide.trip.count54 = zext nneg i32 %5 to i64
  %wide.trip.count = zext nneg i32 %2 to i64
  br label %.lr.ph.preheader

.lr.ph.preheader:                                 ; preds = %._crit_edge, %.lr.ph46
  %indvars.iv51 = phi i64 [ 0, %.lr.ph46 ], [ %indvars.iv.next52, %._crit_edge ]
  %indvars.iv = phi i64 [ 1, %.lr.ph46 ], [ %indvars.iv.next, %._crit_edge ]
  %indvars.iv.next52 = add nuw nsw i64 %indvars.iv51, 1
  %7 = trunc nuw nsw i64 %indvars.iv51 to i32
  br label %.lr.ph

.lr.ph:                                           ; preds = %.lr.ph.preheader, %Gia_ObjLevelId.exit41
  %indvars.iv48 = phi i64 [ %indvars.iv, %.lr.ph.preheader ], [ %indvars.iv.next49, %Gia_ObjLevelId.exit41 ]
  %.02343 = phi i32 [ %7, %.lr.ph.preheader ], [ %spec.select, %Gia_ObjLevelId.exit41 ]
  %8 = getelementptr inbounds nuw i32, ptr %1, i64 %indvars.iv48
  %9 = load i32, ptr %8, align 4, !tbaa !3
  %10 = ashr i32 %9, 1
  %.val25 = load ptr, ptr %6, align 8, !tbaa !157
  %11 = add nsw i32 %10, 1
  %12 = getelementptr inbounds nuw i8, ptr %.val25, i64 4
  %13 = load i32, ptr %12, align 4, !tbaa !23
  %.not.i.not.i.i = icmp slt i32 %10, %13
  br i1 %.not.i.not.i.i, label %Gia_ObjLevelId.exit, label %14

14:                                               ; preds = %.lr.ph
  %15 = load i32, ptr %.val25, align 8, !tbaa !21
  %16 = shl nsw i32 %15, 1
  %.not.i.i = icmp slt i32 %10, %16
  %.not.i.i.not.i.i = icmp sgt i32 %15, %10
  br i1 %.not.i.i, label %29, label %17

17:                                               ; preds = %14
  br i1 %.not.i.i.not.i.i, label %Vec_IntGrow.exit.i.i.i, label %18

18:                                               ; preds = %17
  %19 = getelementptr inbounds nuw i8, ptr %.val25, i64 8
  %20 = load ptr, ptr %19, align 8, !tbaa !22
  %.not9.i.i.i.i = icmp eq ptr %20, null
  %21 = sext i32 %11 to i64
  %22 = shl nsw i64 %21, 2
  br i1 %.not9.i.i.i.i, label %25, label %23

23:                                               ; preds = %18
  %24 = tail call ptr @realloc(ptr noundef nonnull %20, i64 noundef %22) #21
  br label %27

25:                                               ; preds = %18
  %26 = tail call noalias ptr @malloc(i64 noundef %22) #22
  br label %27

27:                                               ; preds = %25, %23
  %28 = phi ptr [ %24, %23 ], [ %26, %25 ]
  store ptr %28, ptr %19, align 8, !tbaa !22
  br label %Vec_IntGrow.exit.sink.split.i.i.i

29:                                               ; preds = %14
  br i1 %.not.i.i.not.i.i, label %Vec_IntGrow.exit.i.i.i, label %30

30:                                               ; preds = %29
  %31 = getelementptr inbounds nuw i8, ptr %.val25, i64 8
  %32 = load ptr, ptr %31, align 8, !tbaa !22
  %.not9.i21.i.i.i = icmp eq ptr %32, null
  %33 = sext i32 %16 to i64
  %34 = shl nsw i64 %33, 2
  br i1 %.not9.i21.i.i.i, label %37, label %35

35:                                               ; preds = %30
  %36 = tail call ptr @realloc(ptr noundef nonnull %32, i64 noundef %34) #21
  br label %39

37:                                               ; preds = %30
  %38 = tail call noalias ptr @malloc(i64 noundef %34) #22
  br label %39

39:                                               ; preds = %37, %35
  %40 = phi ptr [ %36, %35 ], [ %38, %37 ]
  store ptr %40, ptr %31, align 8, !tbaa !22
  br label %Vec_IntGrow.exit.sink.split.i.i.i

Vec_IntGrow.exit.sink.split.i.i.i:                ; preds = %39, %27
  %.sink.i.i.i = phi i32 [ %16, %39 ], [ %11, %27 ]
  store i32 %.sink.i.i.i, ptr %.val25, align 8, !tbaa !21
  %.pre.i.i = load i32, ptr %12, align 4, !tbaa !23
  br label %Vec_IntGrow.exit.i.i.i

Vec_IntGrow.exit.i.i.i:                           ; preds = %Vec_IntGrow.exit.sink.split.i.i.i, %29, %17
  %41 = phi i32 [ %.pre.i.i, %Vec_IntGrow.exit.sink.split.i.i.i ], [ %13, %29 ], [ %13, %17 ]
  %.not3.i.i = icmp sgt i32 %41, %10
  br i1 %.not3.i.i, label %._crit_edge.i.i.i, label %.lr.ph.i.i.i

.lr.ph.i.i.i:                                     ; preds = %Vec_IntGrow.exit.i.i.i
  %42 = getelementptr inbounds nuw i8, ptr %.val25, i64 8
  %43 = load ptr, ptr %42, align 8, !tbaa !22
  %44 = sext i32 %41 to i64
  %wide.trip.count.i.i.i = sext i32 %11 to i64
  %45 = shl nsw i64 %44, 2
  %scevgep.i.i = getelementptr i8, ptr %43, i64 %45
  %46 = sub nsw i64 %wide.trip.count.i.i.i, %44
  %47 = shl nsw i64 %46, 2
  tail call void @llvm.memset.p0.i64(ptr align 4 %scevgep.i.i, i8 0, i64 %47, i1 false), !tbaa !3
  br label %._crit_edge.i.i.i

._crit_edge.i.i.i:                                ; preds = %.lr.ph.i.i.i, %Vec_IntGrow.exit.i.i.i
  store i32 %11, ptr %12, align 4, !tbaa !23
  %.val.pre = load ptr, ptr %6, align 8, !tbaa !157
  %.phi.trans.insert = getelementptr inbounds nuw i8, ptr %.val.pre, i64 4
  %.pre = load i32, ptr %.phi.trans.insert, align 4, !tbaa !23
  br label %Gia_ObjLevelId.exit

Gia_ObjLevelId.exit:                              ; preds = %.lr.ph, %._crit_edge.i.i.i
  %48 = phi i32 [ %13, %.lr.ph ], [ %.pre, %._crit_edge.i.i.i ]
  %.val = phi ptr [ %.val25, %.lr.ph ], [ %.val.pre, %._crit_edge.i.i.i ]
  %49 = getelementptr i8, ptr %.val25, i64 8
  %.val.i.i = load ptr, ptr %49, align 8, !tbaa !22
  %50 = sext i32 %10 to i64
  %51 = getelementptr inbounds i32, ptr %.val.i.i, i64 %50
  %52 = load i32, ptr %51, align 4, !tbaa !3
  %53 = sext i32 %.02343 to i64
  %54 = getelementptr inbounds i32, ptr %1, i64 %53
  %55 = load i32, ptr %54, align 4, !tbaa !3
  %56 = ashr i32 %55, 1
  %57 = add nsw i32 %56, 1
  %58 = getelementptr inbounds nuw i8, ptr %.val, i64 4
  %.not.i.not.i.i26 = icmp slt i32 %56, %48
  br i1 %.not.i.not.i.i26, label %Gia_ObjLevelId.exit41, label %59

59:                                               ; preds = %Gia_ObjLevelId.exit
  %60 = load i32, ptr %.val, align 8, !tbaa !21
  %61 = shl nsw i32 %60, 1
  %.not.i.i27 = icmp slt i32 %56, %61
  %.not.i.i.not.i.i28 = icmp sgt i32 %60, %56
  br i1 %.not.i.i27, label %74, label %62

62:                                               ; preds = %59
  br i1 %.not.i.i.not.i.i28, label %Vec_IntGrow.exit.i.i.i33, label %63

63:                                               ; preds = %62
  %64 = getelementptr inbounds nuw i8, ptr %.val, i64 8
  %65 = load ptr, ptr %64, align 8, !tbaa !22
  %.not9.i.i.i.i29 = icmp eq ptr %65, null
  %66 = sext i32 %57 to i64
  %67 = shl nsw i64 %66, 2
  br i1 %.not9.i.i.i.i29, label %70, label %68

68:                                               ; preds = %63
  %69 = tail call ptr @realloc(ptr noundef nonnull %65, i64 noundef %67) #21
  br label %72

70:                                               ; preds = %63
  %71 = tail call noalias ptr @malloc(i64 noundef %67) #22
  br label %72

72:                                               ; preds = %70, %68
  %73 = phi ptr [ %69, %68 ], [ %71, %70 ]
  store ptr %73, ptr %64, align 8, !tbaa !22
  br label %Vec_IntGrow.exit.sink.split.i.i.i30

74:                                               ; preds = %59
  br i1 %.not.i.i.not.i.i28, label %Vec_IntGrow.exit.i.i.i33, label %75

75:                                               ; preds = %74
  %76 = getelementptr inbounds nuw i8, ptr %.val, i64 8
  %77 = load ptr, ptr %76, align 8, !tbaa !22
  %.not9.i21.i.i.i40 = icmp eq ptr %77, null
  %78 = sext i32 %61 to i64
  %79 = shl nsw i64 %78, 2
  br i1 %.not9.i21.i.i.i40, label %82, label %80

80:                                               ; preds = %75
  %81 = tail call ptr @realloc(ptr noundef nonnull %77, i64 noundef %79) #21
  br label %84

82:                                               ; preds = %75
  %83 = tail call noalias ptr @malloc(i64 noundef %79) #22
  br label %84

84:                                               ; preds = %82, %80
  %85 = phi ptr [ %81, %80 ], [ %83, %82 ]
  store ptr %85, ptr %76, align 8, !tbaa !22
  br label %Vec_IntGrow.exit.sink.split.i.i.i30

Vec_IntGrow.exit.sink.split.i.i.i30:              ; preds = %84, %72
  %.sink.i.i.i31 = phi i32 [ %61, %84 ], [ %57, %72 ]
  store i32 %.sink.i.i.i31, ptr %.val, align 8, !tbaa !21
  %.pre.i.i32 = load i32, ptr %58, align 4, !tbaa !23
  br label %Vec_IntGrow.exit.i.i.i33

Vec_IntGrow.exit.i.i.i33:                         ; preds = %Vec_IntGrow.exit.sink.split.i.i.i30, %74, %62
  %86 = phi i32 [ %.pre.i.i32, %Vec_IntGrow.exit.sink.split.i.i.i30 ], [ %48, %74 ], [ %48, %62 ]
  %.not3.i.i34 = icmp sgt i32 %86, %56
  br i1 %.not3.i.i34, label %._crit_edge.i.i.i38, label %.lr.ph.i.i.i35

.lr.ph.i.i.i35:                                   ; preds = %Vec_IntGrow.exit.i.i.i33
  %87 = getelementptr inbounds nuw i8, ptr %.val, i64 8
  %88 = load ptr, ptr %87, align 8, !tbaa !22
  %89 = sext i32 %86 to i64
  %wide.trip.count.i.i.i36 = sext i32 %57 to i64
  %90 = shl nsw i64 %89, 2
  %scevgep.i.i37 = getelementptr i8, ptr %88, i64 %90
  %91 = sub nsw i64 %wide.trip.count.i.i.i36, %89
  %92 = shl nsw i64 %91, 2
  tail call void @llvm.memset.p0.i64(ptr align 4 %scevgep.i.i37, i8 0, i64 %92, i1 false), !tbaa !3
  br label %._crit_edge.i.i.i38

._crit_edge.i.i.i38:                              ; preds = %.lr.ph.i.i.i35, %Vec_IntGrow.exit.i.i.i33
  store i32 %57, ptr %58, align 4, !tbaa !23
  br label %Gia_ObjLevelId.exit41

Gia_ObjLevelId.exit41:                            ; preds = %Gia_ObjLevelId.exit, %._crit_edge.i.i.i38
  %93 = getelementptr i8, ptr %.val, i64 8
  %.val.i.i39 = load ptr, ptr %93, align 8, !tbaa !22
  %94 = sext i32 %56 to i64
  %95 = getelementptr inbounds i32, ptr %.val.i.i39, i64 %94
  %96 = load i32, ptr %95, align 4, !tbaa !3
  %97 = icmp sgt i32 %52, %96
  %98 = trunc nuw nsw i64 %indvars.iv48 to i32
  %spec.select = select i1 %97, i32 %98, i32 %.02343
  %indvars.iv.next49 = add nuw nsw i64 %indvars.iv48, 1
  %exitcond.not = icmp eq i64 %indvars.iv.next49, %wide.trip.count
  br i1 %exitcond.not, label %._crit_edge, label %.lr.ph, !llvm.loop !160

._crit_edge:                                      ; preds = %Gia_ObjLevelId.exit41
  %99 = getelementptr inbounds nuw i32, ptr %1, i64 %indvars.iv51
  %100 = load i32, ptr %99, align 4, !tbaa !3
  %101 = sext i32 %spec.select to i64
  %102 = getelementptr inbounds i32, ptr %1, i64 %101
  %103 = load i32, ptr %102, align 4, !tbaa !3
  store i32 %103, ptr %99, align 4, !tbaa !3
  store i32 %100, ptr %102, align 4, !tbaa !3
  %indvars.iv.next = add nuw nsw i64 %indvars.iv, 1
  %exitcond55.not = icmp eq i64 %indvars.iv.next52, %wide.trip.count54
  br i1 %exitcond55.not, label %._crit_edge47, label %.lr.ph.preheader, !llvm.loop !161

._crit_edge47:                                    ; preds = %._crit_edge, %3
  ret void
}